; Function Attrs: mustprogress uwtable
define hidden void @_ZN2cv11xfeatures2d10GMSMatcher14convertMatchesERKSt6vectorINS_6DMatchESaIS3_EERS2_ISt4pairIiiESaIS9_EE(ptr noundef nonnull readonly align 8 captures(none) dereferenceable(512) %0, ptr noundef nonnull readonly align 8 captures(none) dereferenceable(24) %1, ptr noundef nonnull align 8 dereferenceable(24) %2) local_unnamed_addr #4 align 2 {
  %4 = getelementptr inbounds nuw i8, ptr %0, i64 72
  %5 = load i64, ptr %4, align 8, !tbaa !3
  tail call void @_ZNSt6vectorISt4pairIiiESaIS1_EE6resizeEm(ptr noundef nonnull align 8 dereferenceable(24) %2, i64 noundef %5)
  %6 = load i64, ptr %4, align 8, !tbaa !3
  %.not = icmp eq i64 %6, 0
  br i1 %.not, label %._crit_edge, label %.lr.ph

.lr.ph:                                           ; preds = %3
  %7 = load ptr, ptr %1, align 8, !tbaa !57
  %8 = load ptr, ptr %2, align 8, !tbaa !40
  br label %9

._crit_edge:                                      ; preds = %9, %3
  ret void

9:                                                ; preds = %.lr.ph, %9
  %.09 = phi i64 [ 0, %.lr.ph ], [ %16, %9 ]
  %10 = getelementptr inbounds nuw %"class.cv::DMatch", ptr %7, i64 %.09
  %11 = getelementptr inbounds nuw i8, ptr %10, i64 4
  %12 = load i32, ptr %10, align 4, !tbaa !52
  %13 = load i32, ptr %11, align 4, !tbaa !52
  %14 = getelementptr inbounds nuw %"struct.std::pair", ptr %8, i64 %.09
  store i32 %12, ptr %14, align 4, !tbaa !42
  %15 = getelementptr inbounds nuw i8, ptr %14, i64 4
  store i32 %13, ptr %15, align 4, !tbaa !44
  %16 = add nuw i64 %.09, 1
  %exitcond.not = icmp eq i64 %16, %6
  br i1 %exitcond.not, label %._crit_edge, label %9, !llvm.loop !60
}